; Function Attrs: mustprogress nounwind uwtable
define internal void @"_ZNSt17_Function_handlerIFN4llvm19TargetTransformInfoERKNS0_8FunctionEEZL28computeHeuristicUnrollFactorPNS0_17CanonicalLoopInfoEE3$_0E9_M_invokeERKSt9_Any_dataS4_"(ptr dead_on_unwind noalias writable sret(%"class.llvm::TargetTransformInfo") align 8 %0, ptr noundef nonnull readonly align 8 captures(none) dereferenceable(16) %1, ptr noundef nonnull align 8 dereferenceable(136) %2) #0 align 2 {
  %.val = load ptr, ptr %1, align 8
  %.val.val = load ptr, ptr %.val, align 8
  %4 = load ptr, ptr %.val.val, align 8, !noalias !1214
  %5 = getelementptr inbounds nuw i8, ptr %4, i64 96
  %6 = load ptr, ptr %5, align 8, !noalias !1214
  tail call void %6(ptr dead_on_unwind writable sret(%"class.llvm::TargetTransformInfo") align 8 %0, ptr noundef nonnull align 8 dereferenceable(1232) %.val.val, ptr noundef nonnull align 8 dereferenceable(136) %2) #26
  ret void
}